; Function Attrs: mustprogress uwtable
define hidden void @_ZN19OpenColorIO_v2_5dev10LogWarningERKNSt7__cxx1112basic_stringIcSt11char_traitsIcESaIcEEE(ptr noundef nonnull readonly align 8 captures(none) dereferenceable(32) %0) local_unnamed_addr #3 personality ptr @__gxx_personality_v0 {
  %2 = tail call noundef i32 @pthread_mutex_lock(ptr noundef nonnull align 8 dereferenceable(40) @_ZN19OpenColorIO_v2_5dev12_GLOBAL__N_110g_logmutexE) #20
  %.not.i.i = icmp eq i32 %2, 0
  br i1 %.not.i.i, label %_ZNSt10lock_guardISt5mutexEC2ERS0_.exit, label %3

3:                                                ; preds = %1
  tail call void @_ZSt20__throw_system_errori(i32 noundef %2) #22
  unreachable

_ZNSt10lock_guardISt5mutexEC2ERS0_.exit:          ; preds = %1
  invoke fastcc void @_ZN19OpenColorIO_v2_5dev12_GLOBAL__N_111InitLoggingEv()
          to label %4 unwind label %7

4:                                                ; preds = %_ZNSt10lock_guardISt5mutexEC2ERS0_.exit
  %5 = load i32, ptr @_ZN19OpenColorIO_v2_5dev12_GLOBAL__N_114g_logginglevelE, align 4, !tbaa !21
  %6 = icmp slt i32 %5, 1
  br i1 %6, label %12, label %10

7:                                                ; preds = %10, %_ZNSt10lock_guardISt5mutexEC2ERS0_.exit
  %8 = landingpad { ptr, i32 }
          cleanup
  %9 = tail call noundef i32 @pthread_mutex_unlock(ptr noundef nonnull align 8 dereferenceable(40) @_ZN19OpenColorIO_v2_5dev12_GLOBAL__N_110g_logmutexE) #20
  resume { ptr, i32 } %8

10:                                               ; preds = %4
  %.val = load ptr, ptr %0, align 8, !tbaa !29
  %11 = getelementptr inbounds nuw i8, ptr %0, i64 8
  %.val2 = load i64, ptr %11, align 8, !tbaa !26
  invoke fastcc void @_ZN19OpenColorIO_v2_5dev12_GLOBAL__N_110LogMessageEPKcRKNSt7__cxx1112basic_stringIcSt11char_traitsIcESaIcEEE(ptr noundef nonnull @.str.3, ptr %.val, i64 %.val2)
          to label %12 unwind label %7

12:                                               ; preds = %10, %4
  %13 = tail call noundef i32 @pthread_mutex_unlock(ptr noundef nonnull align 8 dereferenceable(40) @_ZN19OpenColorIO_v2_5dev12_GLOBAL__N_110g_logmutexE) #20
  ret void
}